target datalayout = "e-m:e-p270:32:32-p271:32:32-p272:64:64-i64:64-i128:128-f80:128-n8:16:32:64-S128"
target triple = "x86_64-pc-linux-gnu"

%struct.rectangle = type { [2 x double], [2 x double] }
%struct.treenode_t = type { double, double, %struct.rectangle, ptr, ptr, %union.anon, i32, i64 }
%union.anon = type { ptr }

; Function Attrs: nounwind uwtable
define internal i32 @nodecmp(ptr noundef %0, ptr noundef %1) #0 {
  %3 = alloca i32, align 4
  %4 = alloca ptr, align 8
  %5 = alloca ptr, align 8
  %6 = alloca ptr, align 8
  %7 = alloca ptr, align 8
  %8 = alloca i32, align 4
  store ptr %0, ptr %4, align 8, !tbaa !69
  store ptr %1, ptr %5, align 8, !tbaa !69
  call void @llvm.lifetime.start.p0(i64 8, ptr %6) #10
  %9 = load ptr, ptr %4, align 8, !tbaa !69
  store ptr %9, ptr %6, align 8, !tbaa !64
  call void @llvm.lifetime.start.p0(i64 8, ptr %7) #10
  %10 = load ptr, ptr %5, align 8, !tbaa !69
  store ptr %10, ptr %7, align 8, !tbaa !64
  %11 = load ptr, ptr %6, align 8, !tbaa !64
  %12 = load ptr, ptr %11, align 8, !tbaa !10
  %13 = getelementptr inbounds nuw %struct.treenode_t, ptr %12, i32 0, i32 0
  %14 = load double, ptr %13, align 8, !tbaa !12
  %15 = load ptr, ptr %7, align 8, !tbaa !64
  %16 = load ptr, ptr %15, align 8, !tbaa !10
  %17 = getelementptr inbounds nuw %struct.treenode_t, ptr %16, i32 0, i32 0
  %18 = load double, ptr %17, align 8, !tbaa !12
  %19 = fcmp olt double %14, %18
  br i1 %19, label %20, label %21

20:                                               ; preds = %2
  store i32 1, ptr %3, align 4
  store i32 1, ptr %8, align 4
  br label %33

21:                                               ; preds = %2
  %22 = load ptr, ptr %6, align 8, !tbaa !64
  %23 = load ptr, ptr %22, align 8, !tbaa !10
  %24 = getelementptr inbounds nuw %struct.treenode_t, ptr %23, i32 0, i32 0
  %25 = load double, ptr %24, align 8, !tbaa !12
  %26 = load ptr, ptr %7, align 8, !tbaa !64
  %27 = load ptr, ptr %26, align 8, !tbaa !10
  %28 = getelementptr inbounds nuw %struct.treenode_t, ptr %27, i32 0, i32 0
  %29 = load double, ptr %28, align 8, !tbaa !12
  %30 = fcmp ogt double %25, %29
  br i1 %30, label %31, label %32

31:                                               ; preds = %21
  store i32 -1, ptr %3, align 4
  store i32 1, ptr %8, align 4
  br label %33

32:                                               ; preds = %21
  store i32 0, ptr %3, align 4
  store i32 1, ptr %8, align 4
  br label %33

33:                                               ; preds = %32, %31, %20
  call void @llvm.lifetime.end.p0(i64 8, ptr %7) #10
  call void @llvm.lifetime.end.p0(i64 8, ptr %6) #10
  %34 = load i32, ptr %3, align 4
  ret i32 %34
}