; Function Attrs: mustprogress nofree norecurse nosync nounwind willreturn memory(read, inaccessiblemem: none) uwtable
define internal range(i32 -1, 2) i32 @nodecmp(ptr noundef readonly captures(none) %0, ptr noundef readonly captures(none) %1) #11 {
  %3 = load ptr, ptr %0, align 8, !tbaa !59
  %4 = load double, ptr %3, align 8, !tbaa !3
  %5 = load ptr, ptr %1, align 8, !tbaa !59
  %6 = load double, ptr %5, align 8, !tbaa !3
  %7 = fcmp olt double %4, %6
  %8 = fcmp ogt double %4, %6
  %. = sext i1 %8 to i32
  %.0 = select i1 %7, i32 1, i32 %.
  ret i32 %.0
}